; Function Attrs: nounwind uwtable
define ptr @l_Std_Time_instToStringDuration_leftPad(ptr noundef %0, ptr noundef %1) local_unnamed_addr #0 {
  %3 = getelementptr i8, ptr %1, i64 24
  %.val = load i64, ptr %3, align 8, !tbaa !12
  %4 = ptrtoint ptr %0 to i64
  %5 = and i64 %4, 1
  %.not = icmp eq i64 %5, 0
  br i1 %.not, label %.critedge.i, label %6, !prof !8

6:                                                ; preds = %2
  %7 = lshr i64 %4, 1
  %8 = and i64 %.val, 9223372036854775807
  %9 = icmp samesign ult i64 %7, %8
  br i1 %9, label %lean_dec.exit, label %10

10:                                               ; preds = %6
  %11 = sub nuw nsw i64 %7, %8
  %12 = shl nuw i64 %11, 1
  %13 = or disjoint i64 %12, 1
  %14 = inttoptr i64 %13 to ptr
  br label %lean_dec.exit

.critedge.i:                                      ; preds = %2
  %15 = shl i64 %.val, 1
  %16 = or disjoint i64 %15, 1
  %17 = inttoptr i64 %16 to ptr
  %18 = tail call ptr @lean_nat_big_sub(ptr noundef %0, ptr noundef nonnull %17) #3
  br label %lean_dec.exit

lean_dec.exit:                                    ; preds = %.critedge.i, %10, %6
  %.1.i = phi ptr [ %18, %.critedge.i ], [ %14, %10 ], [ inttoptr (i64 1 to ptr), %6 ]
  %19 = load ptr, ptr @l_Std_Time_instToStringDuration_leftPad___closed__1, align 8, !tbaa !4
  %20 = tail call ptr @l_Nat_repeatTR_loop___at_Std_Time_instToStringDuration_leftPad___spec__1(i32 noundef 48, ptr noundef %.1.i, ptr noundef %19)
  %21 = tail call ptr @lean_string_append(ptr noundef %20, ptr noundef nonnull %1) #3
  ret ptr %21
}